; Function Attrs: nounwind uwtable
define ptr @l_Array_foldlMUnsafe_fold___at_Lean_Compiler_LCNF_Decl_reduceArity___spec__6(ptr noundef %0, ptr readnone captures(none) %1, ptr noundef readonly captures(none) %2, i64 noundef %3, i64 noundef %4, ptr noundef %5) local_unnamed_addr #0 {
  %.not49 = icmp eq i64 %3, %4
  br i1 %.not49, label %._crit_edge, label %.lr.ph

.lr.ph:                                           ; preds = %6
  %7 = getelementptr inbounds nuw i8, ptr %2, i64 24
  br label %8

8:                                                ; preds = %.lr.ph, %lean_dec.exit
  %.02451 = phi i64 [ %3, %.lr.ph ], [ %39, %lean_dec.exit ]
  %.02650 = phi ptr [ %5, %.lr.ph ], [ %.228, %lean_dec.exit ]
  %9 = getelementptr inbounds nuw [0 x ptr], ptr %7, i64 0, i64 %.02451
  %10 = load ptr, ptr %9, align 8, !tbaa !4
  %11 = ptrtoint ptr %10 to i64
  %12 = and i64 %11, 1
  %.not.i35 = icmp eq i64 %12, 0
  br i1 %.not.i35, label %13, label %lean_array_uget.exit

13:                                               ; preds = %8
  %.val.i.i = load i32, ptr %10, align 4, !tbaa !8
  %14 = icmp sgt i32 %.val.i.i, 0
  br i1 %14, label %15, label %17, !prof !11

15:                                               ; preds = %13
  %16 = add nuw i32 %.val.i.i, 1
  store i32 %16, ptr %10, align 4, !tbaa !8
  br label %lean_array_uget.exit

17:                                               ; preds = %13
  %.not.i.i = icmp eq i32 %.val.i.i, 0
  br i1 %.not.i.i, label %lean_array_uget.exit, label %18

18:                                               ; preds = %17
  tail call void @lean_inc_ref_cold(ptr noundef nonnull %10) #4
  br label %lean_array_uget.exit

lean_array_uget.exit:                             ; preds = %8, %15, %17, %18
  %19 = getelementptr inbounds nuw i8, ptr %10, i64 8
  %20 = load ptr, ptr %19, align 8, !tbaa !4
  %21 = ptrtoint ptr %20 to i64
  %22 = and i64 %21, 1
  %.not47 = icmp eq i64 %22, 0
  br i1 %.not47, label %23, label %lean_inc.exit

23:                                               ; preds = %lean_array_uget.exit
  %.val.i = load i32, ptr %20, align 4, !tbaa !8
  %24 = icmp sgt i32 %.val.i, 0
  br i1 %24, label %25, label %27, !prof !11

25:                                               ; preds = %23
  %26 = add nuw i32 %.val.i, 1
  store i32 %26, ptr %20, align 4, !tbaa !8
  br label %30

27:                                               ; preds = %23
  %.not.i36 = icmp eq i32 %.val.i, 0
  br i1 %.not.i36, label %30, label %28

28:                                               ; preds = %27
  tail call void @lean_inc_ref_cold(ptr noundef nonnull %20) #4
  br label %30

lean_inc.exit:                                    ; preds = %lean_array_uget.exit
  %29 = tail call ptr @l_Lean_RBNode_findCore___at___private_Lean_Meta_FunInfo_0__Lean_Meta_getFunInfoAux___spec__2(ptr noundef %0, ptr noundef %20) #4
  br label %lean_dec.exit30

30:                                               ; preds = %28, %27, %25
  %31 = tail call ptr @l_Lean_RBNode_findCore___at___private_Lean_Meta_FunInfo_0__Lean_Meta_getFunInfoAux___spec__2(ptr noundef %0, ptr noundef nonnull %20) #4
  %32 = load i32, ptr %20, align 4, !tbaa !8
  %33 = icmp sgt i32 %32, 1
  br i1 %33, label %34, label %36, !prof !11

34:                                               ; preds = %30
  %35 = add nsw i32 %32, -1
  store i32 %35, ptr %20, align 4, !tbaa !8
  br label %lean_dec.exit30

36:                                               ; preds = %30
  %.not.i = icmp eq i32 %32, 0
  br i1 %.not.i, label %lean_dec.exit30, label %37

37:                                               ; preds = %36
  tail call void @lean_dec_ref_cold(ptr noundef nonnull %20) #4
  br label %lean_dec.exit30

lean_dec.exit30:                                  ; preds = %37, %36, %34, %lean_inc.exit
  %38 = phi ptr [ %29, %lean_inc.exit ], [ %31, %34 ], [ %31, %36 ], [ %31, %37 ]
  %39 = add i64 %.02451, 1
  %40 = ptrtoint ptr %38 to i64
  %41 = and i64 %40, 1
  %.not.i37 = icmp eq i64 %41, 0
  br i1 %.not.i37, label %lean_obj_tag.exit.thread, label %lean_obj_tag.exit

lean_obj_tag.exit:                                ; preds = %lean_dec.exit30
  %42 = and i64 %40, 8589934590
  %43 = icmp eq i64 %42, 0
  br i1 %43, label %46, label %lean_dec.exit29

lean_obj_tag.exit.thread:                         ; preds = %lean_dec.exit30
  %44 = getelementptr i8, ptr %38, i64 4
  %.val.i38 = load i32, ptr %44, align 4
  %45 = icmp ult i32 %.val.i38, 16777216
  br i1 %45, label %46, label %.thread

46:                                               ; preds = %lean_obj_tag.exit.thread, %lean_obj_tag.exit
  %47 = tail call ptr @lean_array_push(ptr noundef %.02650, ptr noundef nonnull %10) #4
  br label %lean_dec.exit

.thread:                                          ; preds = %lean_obj_tag.exit.thread
  %48 = load i32, ptr %38, align 4, !tbaa !8
  %49 = icmp sgt i32 %48, 1
  br i1 %49, label %50, label %52, !prof !11

50:                                               ; preds = %.thread
  %51 = add nsw i32 %48, -1
  store i32 %51, ptr %38, align 4, !tbaa !8
  br label %lean_dec.exit29

52:                                               ; preds = %.thread
  %.not.i31 = icmp eq i32 %48, 0
  br i1 %.not.i31, label %lean_dec.exit29, label %53

53:                                               ; preds = %52
  tail call void @lean_dec_ref_cold(ptr noundef nonnull %38) #4
  br label %lean_dec.exit29

lean_dec.exit29:                                  ; preds = %lean_obj_tag.exit, %53, %52, %50
  br i1 %.not.i35, label %54, label %lean_dec.exit

54:                                               ; preds = %lean_dec.exit29
  %55 = load i32, ptr %10, align 4, !tbaa !8
  %56 = icmp sgt i32 %55, 1
  br i1 %56, label %57, label %59, !prof !11

57:                                               ; preds = %54
  %58 = add nsw i32 %55, -1
  store i32 %58, ptr %10, align 4, !tbaa !8
  br label %lean_dec.exit

59:                                               ; preds = %54
  %.not.i33 = icmp eq i32 %55, 0
  br i1 %.not.i33, label %lean_dec.exit, label %60

60:                                               ; preds = %59
  tail call void @lean_dec_ref_cold(ptr noundef nonnull %10) #4
  br label %lean_dec.exit

lean_dec.exit:                                    ; preds = %lean_dec.exit29, %57, %59, %60, %46
  %.228 = phi ptr [ %47, %46 ], [ %.02650, %60 ], [ %.02650, %59 ], [ %.02650, %57 ], [ %.02650, %lean_dec.exit29 ]
  %.not = icmp eq i64 %39, %4
  br i1 %.not, label %._crit_edge, label %8

._crit_edge:                                      ; preds = %lean_dec.exit, %6
  %.026.lcssa = phi ptr [ %5, %6 ], [ %.228, %lean_dec.exit ]
  ret ptr %.026.lcssa
}